target datalayout = "e-m:e-p270:32:32-p271:32:32-p272:64:64-i64:64-i128:128-f80:128-n8:16:32:64-S128"
target triple = "x86_64-pc-linux-gnu"

%struct.AVChannelLayout = type { i32, i32, %union.anon.1, ptr }
%union.anon.1 = type { i64 }
%struct.AVRational = type { i32, i32 }
%struct.AVFrame = type { [8 x ptr], [8 x i32], ptr, i32, i32, i32, i32, i32, %struct.AVRational, i64, i64, %struct.AVRational, i32, ptr, i32, i32, [8 x ptr], ptr, i32, ptr, i32, i32, i32, i32, i32, i32, i32, i64, ptr, i32, ptr, ptr, i64, i64, i64, i64, ptr, %struct.AVChannelLayout, i64 }

; Function Attrs: nounwind uwtable
define internal void @draw_sono(ptr noundef %0, ptr noundef %1, i32 noundef %2, i32 noundef %3) #1 {
  %5 = alloca ptr, align 8
  %6 = alloca ptr, align 8
  %7 = alloca i32, align 4
  %8 = alloca i32, align 4
  %9 = alloca i32, align 4
  %10 = alloca i32, align 4
  %11 = alloca i32, align 4
  %12 = alloca i32, align 4
  %13 = alloca i32, align 4
  %14 = alloca i64, align 8
  %15 = alloca i32, align 4
  %16 = alloca i32, align 4
  %17 = alloca i32, align 4
  store ptr %0, ptr %5, align 8, !tbaa !59
  store ptr %1, ptr %6, align 8, !tbaa !59
  store i32 %2, ptr %7, align 4, !tbaa !50
  store i32 %3, ptr %8, align 4, !tbaa !50
  call void @llvm.lifetime.start.p0(i64 4, ptr %9) #12
  %18 = load ptr, ptr %5, align 8, !tbaa !59
  %19 = getelementptr inbounds nuw %struct.AVFrame, ptr %18, i32 0, i32 6
  %20 = load i32, ptr %19, align 4, !tbaa !149
  store i32 %20, ptr %9, align 4, !tbaa !50
  call void @llvm.lifetime.start.p0(i64 4, ptr %10) #12
  %21 = load ptr, ptr %6, align 8, !tbaa !59
  %22 = getelementptr inbounds nuw %struct.AVFrame, ptr %21, i32 0, i32 4
  %23 = load i32, ptr %22, align 4, !tbaa !154
  store i32 %23, ptr %10, align 4, !tbaa !50
  call void @llvm.lifetime.start.p0(i64 4, ptr %11) #12
  %24 = load i32, ptr %9, align 4, !tbaa !50
  %25 = icmp eq i32 %24, 2
  %26 = select i1 %25, i32 1, i32 3
  store i32 %26, ptr %11, align 4, !tbaa !50
  call void @llvm.lifetime.start.p0(i64 4, ptr %12) #12
  %27 = load i32, ptr %9, align 4, !tbaa !50
  %28 = icmp eq i32 %27, 0
  br i1 %28, label %29, label %32

29:                                               ; preds = %4
  %30 = load i32, ptr %7, align 4, !tbaa !50
  %31 = sdiv i32 %30, 2
  br label %34

32:                                               ; preds = %4
  %33 = load i32, ptr %7, align 4, !tbaa !50
  br label %34

34:                                               ; preds = %32, %29
  %35 = phi i32 [ %31, %29 ], [ %33, %32 ]
  store i32 %35, ptr %12, align 4, !tbaa !50
  call void @llvm.lifetime.start.p0(i64 4, ptr %13) #12
  %36 = load i32, ptr %9, align 4, !tbaa !50
  %37 = icmp eq i32 %36, 0
  %38 = select i1 %37, i32 2, i32 1
  store i32 %38, ptr %13, align 4, !tbaa !50
  call void @llvm.lifetime.start.p0(i64 8, ptr %14) #12
  call void @llvm.lifetime.start.p0(i64 4, ptr %15) #12
  call void @llvm.lifetime.start.p0(i64 4, ptr %16) #12
  call void @llvm.lifetime.start.p0(i64 4, ptr %17) #12
  %39 = load ptr, ptr %5, align 8, !tbaa !59
  %40 = getelementptr inbounds nuw %struct.AVFrame, ptr %39, i32 0, i32 1
  %41 = getelementptr inbounds [8 x i32], ptr %40, i64 0, i64 0
  %42 = load i32, ptr %41, align 8, !tbaa !50
  %43 = load ptr, ptr %6, align 8, !tbaa !59
  %44 = getelementptr inbounds nuw %struct.AVFrame, ptr %43, i32 0, i32 1
  %45 = getelementptr inbounds [8 x i32], ptr %44, i64 0, i64 0
  %46 = load i32, ptr %45, align 8, !tbaa !50
  %47 = icmp sgt i32 %42, %46
  br i1 %47, label %48, label %53

48:                                               ; preds = %34
  %49 = load ptr, ptr %6, align 8, !tbaa !59
  %50 = getelementptr inbounds nuw %struct.AVFrame, ptr %49, i32 0, i32 1
  %51 = getelementptr inbounds [8 x i32], ptr %50, i64 0, i64 0
  %52 = load i32, ptr %51, align 8, !tbaa !50
  br label %58

53:                                               ; preds = %34
  %54 = load ptr, ptr %5, align 8, !tbaa !59
  %55 = getelementptr inbounds nuw %struct.AVFrame, ptr %54, i32 0, i32 1
  %56 = getelementptr inbounds [8 x i32], ptr %55, i64 0, i64 0
  %57 = load i32, ptr %56, align 8, !tbaa !50
  br label %58

58:                                               ; preds = %53, %48
  %59 = phi i32 [ %52, %48 ], [ %57, %53 ]
  %60 = icmp sge i32 %59, 0
  br i1 %60, label %61, label %83

61:                                               ; preds = %58
  %62 = load ptr, ptr %5, align 8, !tbaa !59
  %63 = getelementptr inbounds nuw %struct.AVFrame, ptr %62, i32 0, i32 1
  %64 = getelementptr inbounds [8 x i32], ptr %63, i64 0, i64 0
  %65 = load i32, ptr %64, align 8, !tbaa !50
  %66 = load ptr, ptr %6, align 8, !tbaa !59
  %67 = getelementptr inbounds nuw %struct.AVFrame, ptr %66, i32 0, i32 1
  %68 = getelementptr inbounds [8 x i32], ptr %67, i64 0, i64 0
  %69 = load i32, ptr %68, align 8, !tbaa !50
  %70 = icmp sgt i32 %65, %69
  br i1 %70, label %71, label %76

71:                                               ; preds = %61
  %72 = load ptr, ptr %6, align 8, !tbaa !59
  %73 = getelementptr inbounds nuw %struct.AVFrame, ptr %72, i32 0, i32 1
  %74 = getelementptr inbounds [8 x i32], ptr %73, i64 0, i64 0
  %75 = load i32, ptr %74, align 8, !tbaa !50
  br label %81

76:                                               ; preds = %61
  %77 = load ptr, ptr %5, align 8, !tbaa !59
  %78 = getelementptr inbounds nuw %struct.AVFrame, ptr %77, i32 0, i32 1
  %79 = getelementptr inbounds [8 x i32], ptr %78, i64 0, i64 0
  %80 = load i32, ptr %79, align 8, !tbaa !50
  br label %81

81:                                               ; preds = %76, %71
  %82 = phi i32 [ %75, %71 ], [ %80, %76 ]
  br label %106

83:                                               ; preds = %58
  %84 = load ptr, ptr %5, align 8, !tbaa !59
  %85 = getelementptr inbounds nuw %struct.AVFrame, ptr %84, i32 0, i32 1
  %86 = getelementptr inbounds [8 x i32], ptr %85, i64 0, i64 0
  %87 = load i32, ptr %86, align 8, !tbaa !50
  %88 = load ptr, ptr %6, align 8, !tbaa !59
  %89 = getelementptr inbounds nuw %struct.AVFrame, ptr %88, i32 0, i32 1
  %90 = getelementptr inbounds [8 x i32], ptr %89, i64 0, i64 0
  %91 = load i32, ptr %90, align 8, !tbaa !50
  %92 = icmp sgt i32 %87, %91
  br i1 %92, label %93, label %98

93:                                               ; preds = %83
  %94 = load ptr, ptr %6, align 8, !tbaa !59
  %95 = getelementptr inbounds nuw %struct.AVFrame, ptr %94, i32 0, i32 1
  %96 = getelementptr inbounds [8 x i32], ptr %95, i64 0, i64 0
  %97 = load i32, ptr %96, align 8, !tbaa !50
  br label %103

98:                                               ; preds = %83
  %99 = load ptr, ptr %5, align 8, !tbaa !59
  %100 = getelementptr inbounds nuw %struct.AVFrame, ptr %99, i32 0, i32 1
  %101 = getelementptr inbounds [8 x i32], ptr %100, i64 0, i64 0
  %102 = load i32, ptr %101, align 8, !tbaa !50
  br label %103

103:                                              ; preds = %98, %93
  %104 = phi i32 [ %97, %93 ], [ %102, %98 ]
  %105 = sub nsw i32 0, %104
  br label %106

106:                                              ; preds = %103, %81
  %107 = phi i32 [ %82, %81 ], [ %105, %103 ]
  %108 = sext i32 %107 to i64
  store i64 %108, ptr %14, align 8, !tbaa !60
  store i32 0, ptr %16, align 4, !tbaa !50
  br label %109

109:                                              ; preds = %145, %106
  %110 = load i32, ptr %16, align 4, !tbaa !50
  %111 = load i32, ptr %10, align 4, !tbaa !50
  %112 = icmp slt i32 %110, %111
  br i1 %112, label %113, label %148

113:                                              ; preds = %109
  %114 = load ptr, ptr %5, align 8, !tbaa !59
  %115 = getelementptr inbounds nuw %struct.AVFrame, ptr %114, i32 0, i32 0
  %116 = getelementptr inbounds [8 x ptr], ptr %115, i64 0, i64 0
  %117 = load ptr, ptr %116, align 8, !tbaa !123
  %118 = load i32, ptr %7, align 4, !tbaa !50
  %119 = load i32, ptr %16, align 4, !tbaa !50
  %120 = add nsw i32 %118, %119
  %121 = load ptr, ptr %5, align 8, !tbaa !59
  %122 = getelementptr inbounds nuw %struct.AVFrame, ptr %121, i32 0, i32 1
  %123 = getelementptr inbounds [8 x i32], ptr %122, i64 0, i64 0
  %124 = load i32, ptr %123, align 8, !tbaa !50
  %125 = mul nsw i32 %120, %124
  %126 = sext i32 %125 to i64
  %127 = getelementptr inbounds i8, ptr %117, i64 %126
  %128 = load ptr, ptr %6, align 8, !tbaa !59
  %129 = getelementptr inbounds nuw %struct.AVFrame, ptr %128, i32 0, i32 0
  %130 = getelementptr inbounds [8 x ptr], ptr %129, i64 0, i64 0
  %131 = load ptr, ptr %130, align 8, !tbaa !123
  %132 = load i32, ptr %8, align 4, !tbaa !50
  %133 = load i32, ptr %16, align 4, !tbaa !50
  %134 = add nsw i32 %132, %133
  %135 = load i32, ptr %10, align 4, !tbaa !50
  %136 = srem i32 %134, %135
  %137 = load ptr, ptr %6, align 8, !tbaa !59
  %138 = getelementptr inbounds nuw %struct.AVFrame, ptr %137, i32 0, i32 1
  %139 = getelementptr inbounds [8 x i32], ptr %138, i64 0, i64 0
  %140 = load i32, ptr %139, align 8, !tbaa !50
  %141 = mul nsw i32 %136, %140
  %142 = sext i32 %141 to i64
  %143 = getelementptr inbounds i8, ptr %131, i64 %142
  %144 = load i64, ptr %14, align 8, !tbaa !60
  call void @llvm.memcpy.p0.p0.i64(ptr align 1 %127, ptr align 1 %143, i64 %144, i1 false)
  br label %145

145:                                              ; preds = %113
  %146 = load i32, ptr %16, align 4, !tbaa !50
  %147 = add nsw i32 %146, 1
  store i32 %147, ptr %16, align 4, !tbaa !50
  br label %109, !llvm.loop !155

148:                                              ; preds = %109
  store i32 1, ptr %15, align 4, !tbaa !50
  br label %149

149:                                              ; preds = %306, %148
  %150 = load i32, ptr %15, align 4, !tbaa !50
  %151 = load i32, ptr %11, align 4, !tbaa !50
  %152 = icmp slt i32 %150, %151
  br i1 %152, label %153, label %309

153:                                              ; preds = %149
  %154 = load ptr, ptr %5, align 8, !tbaa !59
  %155 = getelementptr inbounds nuw %struct.AVFrame, ptr %154, i32 0, i32 1
  %156 = load i32, ptr %15, align 4, !tbaa !50
  %157 = sext i32 %156 to i64
  %158 = getelementptr inbounds [8 x i32], ptr %155, i64 0, i64 %157
  %159 = load i32, ptr %158, align 4, !tbaa !50
  %160 = load ptr, ptr %6, align 8, !tbaa !59
  %161 = getelementptr inbounds nuw %struct.AVFrame, ptr %160, i32 0, i32 1
  %162 = load i32, ptr %15, align 4, !tbaa !50
  %163 = sext i32 %162 to i64
  %164 = getelementptr inbounds [8 x i32], ptr %161, i64 0, i64 %163
  %165 = load i32, ptr %164, align 4, !tbaa !50
  %166 = icmp sgt i32 %159, %165
  br i1 %166, label %167, label %174

167:                                              ; preds = %153
  %168 = load ptr, ptr %6, align 8, !tbaa !59
  %169 = getelementptr inbounds nuw %struct.AVFrame, ptr %168, i32 0, i32 1
  %170 = load i32, ptr %15, align 4, !tbaa !50
  %171 = sext i32 %170 to i64
  %172 = getelementptr inbounds [8 x i32], ptr %169, i64 0, i64 %171
  %173 = load i32, ptr %172, align 4, !tbaa !50
  br label %181

174:                                              ; preds = %153
  %175 = load ptr, ptr %5, align 8, !tbaa !59
  %176 = getelementptr inbounds nuw %struct.AVFrame, ptr %175, i32 0, i32 1
  %177 = load i32, ptr %15, align 4, !tbaa !50
  %178 = sext i32 %177 to i64
  %179 = getelementptr inbounds [8 x i32], ptr %176, i64 0, i64 %178
  %180 = load i32, ptr %179, align 4, !tbaa !50
  br label %181

181:                                              ; preds = %174, %167
  %182 = phi i32 [ %173, %167 ], [ %180, %174 ]
  %183 = icmp sge i32 %182, 0
  br i1 %183, label %184, label %214

184:                                              ; preds = %181
  %185 = load ptr, ptr %5, align 8, !tbaa !59
  %186 = getelementptr inbounds nuw %struct.AVFrame, ptr %185, i32 0, i32 1
  %187 = load i32, ptr %15, align 4, !tbaa !50
  %188 = sext i32 %187 to i64
  %189 = getelementptr inbounds [8 x i32], ptr %186, i64 0, i64 %188
  %190 = load i32, ptr %189, align 4, !tbaa !50
  %191 = load ptr, ptr %6, align 8, !tbaa !59
  %192 = getelementptr inbounds nuw %struct.AVFrame, ptr %191, i32 0, i32 1
  %193 = load i32, ptr %15, align 4, !tbaa !50
  %194 = sext i32 %193 to i64
  %195 = getelementptr inbounds [8 x i32], ptr %192, i64 0, i64 %194
  %196 = load i32, ptr %195, align 4, !tbaa !50
  %197 = icmp sgt i32 %190, %196
  br i1 %197, label %198, label %205

198:                                              ; preds = %184
  %199 = load ptr, ptr %6, align 8, !tbaa !59
  %200 = getelementptr inbounds nuw %struct.AVFrame, ptr %199, i32 0, i32 1
  %201 = load i32, ptr %15, align 4, !tbaa !50
  %202 = sext i32 %201 to i64
  %203 = getelementptr inbounds [8 x i32], ptr %200, i64 0, i64 %202
  %204 = load i32, ptr %203, align 4, !tbaa !50
  br label %212

205:                                              ; preds = %184
  %206 = load ptr, ptr %5, align 8, !tbaa !59
  %207 = getelementptr inbounds nuw %struct.AVFrame, ptr %206, i32 0, i32 1
  %208 = load i32, ptr %15, align 4, !tbaa !50
  %209 = sext i32 %208 to i64
  %210 = getelementptr inbounds [8 x i32], ptr %207, i64 0, i64 %209
  %211 = load i32, ptr %210, align 4, !tbaa !50
  br label %212

212:                                              ; preds = %205, %198
  %213 = phi i32 [ %204, %198 ], [ %211, %205 ]
  br label %245

214:                                              ; preds = %181
  %215 = load ptr, ptr %5, align 8, !tbaa !59
  %216 = getelementptr inbounds nuw %struct.AVFrame, ptr %215, i32 0, i32 1
  %217 = load i32, ptr %15, align 4, !tbaa !50
  %218 = sext i32 %217 to i64
  %219 = getelementptr inbounds [8 x i32], ptr %216, i64 0, i64 %218
  %220 = load i32, ptr %219, align 4, !tbaa !50
  %221 = load ptr, ptr %6, align 8, !tbaa !59
  %222 = getelementptr inbounds nuw %struct.AVFrame, ptr %221, i32 0, i32 1
  %223 = load i32, ptr %15, align 4, !tbaa !50
  %224 = sext i32 %223 to i64
  %225 = getelementptr inbounds [8 x i32], ptr %222, i64 0, i64 %224
  %226 = load i32, ptr %225, align 4, !tbaa !50
  %227 = icmp sgt i32 %220, %226
  br i1 %227, label %228, label %235

228:                                              ; preds = %214
  %229 = load ptr, ptr %6, align 8, !tbaa !59
  %230 = getelementptr inbounds nuw %struct.AVFrame, ptr %229, i32 0, i32 1
  %231 = load i32, ptr %15, align 4, !tbaa !50
  %232 = sext i32 %231 to i64
  %233 = getelementptr inbounds [8 x i32], ptr %230, i64 0, i64 %232
  %234 = load i32, ptr %233, align 4, !tbaa !50
  br label %242

235:                                              ; preds = %214
  %236 = load ptr, ptr %5, align 8, !tbaa !59
  %237 = getelementptr inbounds nuw %struct.AVFrame, ptr %236, i32 0, i32 1
  %238 = load i32, ptr %15, align 4, !tbaa !50
  %239 = sext i32 %238 to i64
  %240 = getelementptr inbounds [8 x i32], ptr %237, i64 0, i64 %239
  %241 = load i32, ptr %240, align 4, !tbaa !50
  br label %242

242:                                              ; preds = %235, %228
  %243 = phi i32 [ %234, %228 ], [ %241, %235 ]
  %244 = sub nsw i32 0, %243
  br label %245

245:                                              ; preds = %242, %212
  %246 = phi i32 [ %213, %212 ], [ %244, %242 ]
  %247 = sext i32 %246 to i64
  store i64 %247, ptr %14, align 8, !tbaa !60
  store i32 0, ptr %16, align 4, !tbaa !50
  br label %248

248:                                              ; preds = %301, %245
  %249 = load i32, ptr %16, align 4, !tbaa !50
  %250 = load i32, ptr %10, align 4, !tbaa !50
  %251 = icmp slt i32 %249, %250
  br i1 %251, label %252, label %305

252:                                              ; preds = %248
  %253 = load i32, ptr %9, align 4, !tbaa !50
  %254 = icmp eq i32 %253, 0
  br i1 %254, label %255, label %258

255:                                              ; preds = %252
  %256 = load i32, ptr %16, align 4, !tbaa !50
  %257 = sdiv i32 %256, 2
  br label %260

258:                                              ; preds = %252
  %259 = load i32, ptr %16, align 4, !tbaa !50
  br label %260

260:                                              ; preds = %258, %255
  %261 = phi i32 [ %257, %255 ], [ %259, %258 ]
  store i32 %261, ptr %17, align 4, !tbaa !50
  %262 = load ptr, ptr %5, align 8, !tbaa !59
  %263 = getelementptr inbounds nuw %struct.AVFrame, ptr %262, i32 0, i32 0
  %264 = load i32, ptr %15, align 4, !tbaa !50
  %265 = sext i32 %264 to i64
  %266 = getelementptr inbounds [8 x ptr], ptr %263, i64 0, i64 %265
  %267 = load ptr, ptr %266, align 8, !tbaa !123
  %268 = load i32, ptr %12, align 4, !tbaa !50
  %269 = load i32, ptr %17, align 4, !tbaa !50
  %270 = add nsw i32 %268, %269
  %271 = load ptr, ptr %5, align 8, !tbaa !59
  %272 = getelementptr inbounds nuw %struct.AVFrame, ptr %271, i32 0, i32 1
  %273 = load i32, ptr %15, align 4, !tbaa !50
  %274 = sext i32 %273 to i64
  %275 = getelementptr inbounds [8 x i32], ptr %272, i64 0, i64 %274
  %276 = load i32, ptr %275, align 4, !tbaa !50
  %277 = mul nsw i32 %270, %276
  %278 = sext i32 %277 to i64
  %279 = getelementptr inbounds i8, ptr %267, i64 %278
  %280 = load ptr, ptr %6, align 8, !tbaa !59
  %281 = getelementptr inbounds nuw %struct.AVFrame, ptr %280, i32 0, i32 0
  %282 = load i32, ptr %15, align 4, !tbaa !50
  %283 = sext i32 %282 to i64
  %284 = getelementptr inbounds [8 x ptr], ptr %281, i64 0, i64 %283
  %285 = load ptr, ptr %284, align 8, !tbaa !123
  %286 = load i32, ptr %8, align 4, !tbaa !50
  %287 = load i32, ptr %16, align 4, !tbaa !50
  %288 = add nsw i32 %286, %287
  %289 = load i32, ptr %10, align 4, !tbaa !50
  %290 = srem i32 %288, %289
  %291 = load ptr, ptr %6, align 8, !tbaa !59
  %292 = getelementptr inbounds nuw %struct.AVFrame, ptr %291, i32 0, i32 1
  %293 = load i32, ptr %15, align 4, !tbaa !50
  %294 = sext i32 %293 to i64
  %295 = getelementptr inbounds [8 x i32], ptr %292, i64 0, i64 %294
  %296 = load i32, ptr %295, align 4, !tbaa !50
  %297 = mul nsw i32 %290, %296
  %298 = sext i32 %297 to i64
  %299 = getelementptr inbounds i8, ptr %285, i64 %298
  %300 = load i64, ptr %14, align 8, !tbaa !60
  call void @llvm.memcpy.p0.p0.i64(ptr align 1 %279, ptr align 1 %299, i64 %300, i1 false)
  br label %301

301:                                              ; preds = %260
  %302 = load i32, ptr %13, align 4, !tbaa !50
  %303 = load i32, ptr %16, align 4, !tbaa !50
  %304 = add nsw i32 %303, %302
  store i32 %304, ptr %16, align 4, !tbaa !50
  br label %248, !llvm.loop !156

305:                                              ; preds = %248
  br label %306

306:                                              ; preds = %305
  %307 = load i32, ptr %15, align 4, !tbaa !50
  %308 = add nsw i32 %307, 1
  store i32 %308, ptr %15, align 4, !tbaa !50
  br label %149, !llvm.loop !157

309:                                              ; preds = %149
  call void @llvm.lifetime.end.p0(i64 4, ptr %17) #12
  call void @llvm.lifetime.end.p0(i64 4, ptr %16) #12
  call void @llvm.lifetime.end.p0(i64 4, ptr %15) #12
  call void @llvm.lifetime.end.p0(i64 8, ptr %14) #12
  call void @llvm.lifetime.end.p0(i64 4, ptr %13) #12
  call void @llvm.lifetime.end.p0(i64 4, ptr %12) #12
  call void @llvm.lifetime.end.p0(i64 4, ptr %11) #12
  call void @llvm.lifetime.end.p0(i64 4, ptr %10) #12
  call void @llvm.lifetime.end.p0(i64 4, ptr %9) #12
  ret void
}